Certificate:
    Data:
        Version: 1 (0x0)
        Serial Number: 181 (0xb5)
    Signature Algorithm: md5WithRSAEncryption
        Issuer: C=SG, ST=Singapore, L=Singapore, O=SUTD, OU=SUTD, CN=Benjamin Kang/emailAddress=webby1111@hotmail.com
        Validity
            Not Before: Mar 27 08:31:42 2018 GMT
            Not After : Mar 27 08:31:42 2019 GMT
        Subject: C=SG, ST=singapore, L=singapore, O=GA pty ltd, OU=GAAH, CN=Brian/emailAddress=brian_chew@mymail.sutd.edu.sg
        Subject Public Key Info:
            Public Key Algorithm: rsaEncryption
                Public-Key: (1024 bit)
                Modulus:
                    00:a5:21:31:82:53:48:db:0d:39:e3:a4:ee:22:8a:
                    a7:95:b9:bd:59:61:97:b9:e8:a9:d9:ec:8d:03:0c:
                    0d:98:8c:29:6d:8d:8a:a5:fe:08:dc:7f:f2:01:44:
                    0c:14:eb:c3:84:ce:f4:8c:b2:4f:c2:b8:0a:9d:ea:
                    83:ba:c8:93:38:75:8b:58:85:e6:9c:3c:66:2a:a8:
                    33:59:b1:17:26:45:23:90:75:d6:6f:c7:52:11:b4:
                    4e:01:fc:94:46:d9:4f:76:2c:c6:6e:d5:5a:dd:c5:
                    0a:1d:b9:02:b2:82:e9:cd:02:89:cf:fb:4a:58:bc:
                    e5:aa:f0:03:b0:c3:0c:2f:15
                Exponent: 65537 (0x10001)
    Signature Algorithm: md5WithRSAEncryption
         6f:c9:78:f5:29:e3:72:f4:c6:b6:53:1e:c7:a4:5f:50:56:b8:
         e6:a0:10:ea:4e:96:d4:47:15:d2:5f:7a:81:8d:79:61:56:c1:
         e8:4e:ac:72:0c:ed:97:70:3c:82:85:82:07:7b:fb:8f:9b:1b:
         1f:c0:6b:af:3f:b7:0e:6d:28:f2:d5:61:51:a7:a8:30:de:00:
         75:ae:12:aa:65:b3:40:22:ab:47:2d:d5:5b:d9:0f:b7:58:f7:
         d2:ad:69:40:fb:0e:c2:e1:c9:68:6d:39:90:fd:12:d1:fc:81:
         a5:38:33:5e:81:a5:44:e5:c2:95:33:87:ba:7e:47:32:63:71:
         b3:ce
-----BEGIN CERTIFICATE-----
MIICmjCCAgMCAgC1MA0GCSqGSIb3DQEBBAUAMIGRMQswCQYDVQQGEwJTRzESMBAG
A1UECBMJU2luZ2Fwb3JlMRIwEAYDVQQHEwlTaW5nYXBvcmUxDTALBgNVBAoTBFNV
VEQxDTALBgNVBAsTBFNVVEQxFjAUBgNVBAMTDUJlbmphbWluIEthbmcxJDAiBgkq
hkiG9w0BCQEWFXdlYmJ5MTExMUBob3RtYWlsLmNvbTAeFw0xODAzMjcwODMxNDJa
Fw0xOTAzMjcwODMxNDJaMIGXMQswCQYDVQQGEwJTRzESMBAGA1UECBMJc2luZ2Fw
b3JlMRIwEAYDVQQHEwlzaW5nYXBvcmUxEzARBgNVBAoTCkdBIHB0eSBsdGQxDTAL
BgNVBAsTBEdBQUgxDjAMBgNVBAMTBUJyaWFuMSwwKgYJKoZIhvcNAQkBFh1icmlh
bl9jaGV3QG15bWFpbC5zdXRkLmVkdS5zZzCBnzANBgkqhkiG9w0BAQEFAAOBjQAw
gYkCgYEApSExglNI2w0546TuIoqnlbm9WWGXueip2eyNAwwNmIwpbY2Kpf4I3H/y
AUQMFOvDhM70jLJPwrgKneqDusiTOHWLWIXmnDxmKqgzWbEXJkUjkHXWb8dSEbRO
AfyURtlPdizGbtVa3cUKHbkCsoLpzQKJz/tKWLzlqvADsMMMLxUCAwEAATANBgkq
hkiG9w0BAQQFAAOBgQBvyXj1KeNy9Ma2Ux7HpF9QVrjmoBDqTpbURxXSX3qBjXlh
VsHoTqxyDO2XcDyChYIHe/uPmxsfwGuvP7cObSjy1WFRp6gw3gB1rhKqZbNAIqtH
LdVb2Q+3WPfSrWlA+w7C4clobTmQ/RLR/IGlODNegaVE5cKVM4e6fkcyY3Gzzg==
-----END CERTIFICATE-----
